; Function Attrs: nounwind uwtable
define internal void @preferences_response_callback_idm1143(ptr noundef %0, i32 noundef %1, ptr noundef %2) #0 {
  %4 = alloca %struct._GtkTextIter, align 8
  %5 = alloca %struct._GtkTextIter, align 8
  %6 = tail call ptr @g_type_check_instance_cast(ptr noundef %0, i64 noundef 80) #12
  %7 = tail call ptr @g_object_get_data(ptr noundef %6, ptr noundef nonnull @.str) #12
  %8 = ptrtoint ptr %7 to i64
  %9 = and i64 %8, 4294967295
  %.not = icmp eq i64 %9, 0
  br i1 %.not, label %11, label %10

10:                                               ; preds = %3
  switch i32 %1, label %12 [
    i32 -1, label %20
    i32 -4, label %20
  ]

11:                                               ; preds = %3
  %.not10 = icmp eq i32 %1, -4
  br i1 %.not10, label %12, label %20

12:                                               ; preds = %10, %11
  %13 = tail call i64 @gtk_widget_get_type() #13
  %14 = tail call ptr @g_type_check_instance_cast(ptr noundef %0, i64 noundef %13) #12
  tail call void @gtk_widget_set_can_focus(ptr noundef %14, i32 noundef 1) #12
  %15 = tail call ptr @g_type_check_instance_cast(ptr noundef %0, i64 noundef %13) #12
  tail call void @gtk_widget_grab_focus(ptr noundef %15) #12
  call void @llvm.lifetime.start.p0(i64 80, ptr nonnull %4) #12
  call void @llvm.lifetime.start.p0(i64 80, ptr nonnull %5) #12
  %16 = tail call i64 @gtk_text_view_get_type() #13
  %17 = tail call ptr @g_type_check_instance_cast(ptr noundef %2, i64 noundef %16) #12
  %18 = tail call ptr @gtk_text_view_get_buffer(ptr noundef %17) #12
  call void @gtk_text_buffer_get_start_iter(ptr noundef %18, ptr noundef nonnull %4) #12
  call void @gtk_text_buffer_get_end_iter(ptr noundef %18, ptr noundef nonnull %5) #12
  %19 = call ptr @gtk_text_buffer_get_text(ptr noundef %18, ptr noundef nonnull %4, ptr noundef nonnull %5, i32 noundef 0) #12
  call void @dt_conf_set_string(ptr noundef nonnull @.str.173, ptr noundef %19) #12
  call void @llvm.lifetime.end.p0(i64 80, ptr nonnull %5) #12
  call void @llvm.lifetime.end.p0(i64 80, ptr nonnull %4) #12
  br label %20

20:                                               ; preds = %11, %10, %10, %12
  ret void
}